target datalayout = "e-m:e-p270:32:32-p271:32:32-p272:64:64-i64:64-i128:128-f80:128-n8:16:32:64-S128"
target triple = "x86_64-pc-linux-gnu"

%struct.redisServer = type { i32, i64, ptr, ptr, ptr, i32, i32, i32, i32, i32, ptr, ptr, ptr, ptr, ptr, i32, i32, i32, i32, i64, i32, i32, i32, i32, ptr, i32, i32, [41 x i8], i32, i64, i32, i32, i32, ptr, ptr, i32, i32, i64, ptr, ptr, ptr, ptr, [2 x i32], i32, i32, i32, i32, i32, i32, [16 x ptr], i32, ptr, ptr, i32, [8 x %struct.connListener], i32, %struct.connListener, ptr, ptr, ptr, ptr, ptr, ptr, ptr, ptr, ptr, ptr, i32, ptr, i32, ptr, [3 x %struct.pause_event], [256 x i8], ptr, i64, i32, i32, [128 x i32], i32, i32, i64, i32, i32, i32, i32, i32, i64, i64, i64, i64, i64, i64, i64, i64, i64, i64, double, i64, i64, i64, i64, i64, i64, i64, i64, i64, i64, i64, i64, i64, i64, i64, i64, i64, i64, i64, i64, i64, double, i64, i64, i64, i64, i64, ptr, i64, i64, i64, %struct.malloc_stats, i64, i64, i64, i64, i64, i64, i64, i64, i64, i64, i64, i64, double, [4 x i64], i64, i64, i64, i64, [128 x i64], [128 x i64], i64, i64, [7 x %struct.anon], i64, i64, i64, i64, i64, i64, [4 x %struct.durationStats], i32, i32, i32, i32, i32, i32, i32, i32, i32, i32, i32, i32, i64, i32, i32, i32, i32, i64, i64, i32, i32, i32, i32, i32, ptr, [3 x %struct.clientBufferLimitsConfig], i32, i32, i32, ptr, i32, i32, i32, i32, i32, i32, ptr, ptr, i32, i32, i64, i64, i64, i64, i64, i32, i32, ptr, i32, i32, i64, i64, i64, i64, i64, i32, i32, i64, i32, i32, i32, i32, i32, i32, i32, i32, ptr, i32, i64, i64, i64, i64, i32, ptr, i32, ptr, i32, i32, i32, i64, i64, i64, i64, i32, i32, i32, i32, i32, i32, ptr, i32, i32, ptr, i32, i32, i32, [2 x i32], i32, %struct.redisOpArray, i32, ptr, i32, ptr, i32, i32, i32, i32, i32, i32, i32, [41 x i8], [41 x i8], i64, i64, i64, i64, i32, i32, ptr, i64, i64, %struct.replDataBuf, i64, i64, i32, i32, i32, i32, i32, i32, i32, i32, i32, i64, ptr, i64, ptr, ptr, ptr, i32, i32, ptr, ptr, i32, i32, i32, i64, i64, i64, i64, ptr, ptr, i32, ptr, i64, i32, i32, i32, i64, i32, i32, i32, i32, ptr, i32, i32, [41 x i8], i64, i32, ptr, i32, i32, i64, i64, i32, i32, i32, i32, i32, i64, [3 x i32], i32, i32, i32, [10 x i32], ptr, ptr, i32, i64, ptr, ptr, i32, i32, i32, i32, i64, i64, i64, i64, i64, i64, i64, i64, i64, i64, i32, i32, i64, i64, i32, i64, i64, i64, i64, i64, ptr, ptr, i32, ptr, i32, i32, i32, i32, i64, i64, ptr, ptr, i32, i32, i32, i32, i32, ptr, ptr, ptr, i32, i32, i32, i32, i32, i32, i32, i64, i32, i32, i64, i32, i32, i32, i32, i32, i32, i32, i64, ptr, ptr, i64, ptr, i32, %struct.aclInfo, i32, i64, i32, i32, i32, %struct.redisTLSContextConfig, ptr, ptr, ptr, ptr, ptr, i64, i32, ptr, i32, i32, i32, i64, i32, ptr }
%struct.connListener = type { [16 x i32], i32, ptr, i32, i32, ptr, ptr }
%struct.pause_event = type { i32, i64 }
%struct.malloc_stats = type { i64, i64, i64, i64, i64, i64, i64, i64, i64, i64, i64 }
%struct.anon = type { i64, i64, [16 x i64], i32 }
%struct.durationStats = type { i64, i64, i64 }
%struct.clientBufferLimitsConfig = type { i64, i64, i64 }
%struct.redisOpArray = type { ptr, i32, i32 }
%struct.replDataBuf = type { ptr, i64, i64, i64, i64 }
%struct.aclInfo = type { i64, i64, i64, i64 }
%struct.redisTLSContextConfig = type { ptr, ptr, ptr, ptr, ptr, ptr, ptr, ptr, ptr, ptr, ptr, ptr, i32, i32, i32, i32 }

@server = external global %struct.redisServer, align 8
@aofRewriteLimited.next_delay_minutes = internal global i32 0, align 4
@aofRewriteLimited.next_rewrite_time = internal global i64 0, align 8
@.str.62 = private unnamed_addr constant [95 x i8] c"Background AOF rewrite has repeatedly failed and triggered the limit, will retry in %d minutes\00", align 1

; Function Attrs: nounwind uwtable
define dso_local i32 @aofRewriteLimited() #0 {
  %1 = alloca i32, align 4
  %2 = load i64, ptr getelementptr inbounds nuw (%struct.redisServer, ptr @server, i32 0, i32 115), align 8, !tbaa !97
  %3 = icmp slt i64 %2, 3
  br i1 %3, label %4, label %5

4:                                                ; preds = %0
  store i32 0, ptr @aofRewriteLimited.next_delay_minutes, align 4, !tbaa !22
  store i64 0, ptr @aofRewriteLimited.next_rewrite_time, align 8, !tbaa !23
  store i32 0, ptr %1, align 4
  br label %39

5:                                                ; preds = %0
  %6 = load i64, ptr @aofRewriteLimited.next_rewrite_time, align 8, !tbaa !23
  %7 = icmp ne i64 %6, 0
  br i1 %7, label %8, label %14

8:                                                ; preds = %5
  %9 = load atomic i64, ptr getelementptr inbounds nuw (%struct.redisServer, ptr @server, i32 0, i32 366) seq_cst, align 8, !tbaa !98
  %10 = load i64, ptr @aofRewriteLimited.next_rewrite_time, align 8, !tbaa !23
  %11 = icmp slt i64 %9, %10
  br i1 %11, label %12, label %13

12:                                               ; preds = %8
  store i32 1, ptr %1, align 4
  br label %39

13:                                               ; preds = %8
  store i64 0, ptr @aofRewriteLimited.next_rewrite_time, align 8, !tbaa !23
  store i32 0, ptr %1, align 4
  br label %39

14:                                               ; preds = %5
  %15 = load i32, ptr @aofRewriteLimited.next_delay_minutes, align 4, !tbaa !22
  %16 = icmp eq i32 %15, 0
  br i1 %16, label %17, label %18

17:                                               ; preds = %14
  br label %21

18:                                               ; preds = %14
  %19 = load i32, ptr @aofRewriteLimited.next_delay_minutes, align 4, !tbaa !22
  %20 = mul nsw i32 %19, 2
  br label %21

21:                                               ; preds = %18, %17
  %22 = phi i32 [ 1, %17 ], [ %20, %18 ]
  store i32 %22, ptr @aofRewriteLimited.next_delay_minutes, align 4, !tbaa !22
  %23 = load i32, ptr @aofRewriteLimited.next_delay_minutes, align 4, !tbaa !22
  %24 = icmp sgt i32 %23, 60
  br i1 %24, label %25, label %26

25:                                               ; preds = %21
  store i32 60, ptr @aofRewriteLimited.next_delay_minutes, align 4, !tbaa !22
  br label %26

26:                                               ; preds = %25, %21
  %27 = load atomic i64, ptr getelementptr inbounds nuw (%struct.redisServer, ptr @server, i32 0, i32 366) seq_cst, align 8, !tbaa !98
  %28 = load i32, ptr @aofRewriteLimited.next_delay_minutes, align 4, !tbaa !22
  %29 = mul nsw i32 %28, 60
  %30 = sext i32 %29 to i64
  %31 = add nsw i64 %27, %30
  store i64 %31, ptr @aofRewriteLimited.next_rewrite_time, align 8, !tbaa !23
  br label %32

32:                                               ; preds = %26
  %33 = load i32, ptr getelementptr inbounds nuw (%struct.redisServer, ptr @server, i32 0, i32 159), align 8, !tbaa !67
  %34 = icmp slt i32 3, %33
  br i1 %34, label %35, label %36

35:                                               ; preds = %32
  br label %38

36:                                               ; preds = %32
  %37 = load i32, ptr @aofRewriteLimited.next_delay_minutes, align 4, !tbaa !22
  call void (i32, ptr, ...) @_serverLog(i32 noundef 3, ptr noundef @.str.62, i32 noundef %37)
  br label %38

38:                                               ; preds = %36, %35
  store i32 1, ptr %1, align 4
  br label %39

39:                                               ; preds = %38, %13, %12, %4
  %40 = load i32, ptr %1, align 4
  ret i32 %40
}