; Function Attrs: nounwind uwtable
define dso_local range(i32 0, 2) i32 @aofRewriteLimited() local_unnamed_addr #0 {
  %1 = load i64, ptr getelementptr inbounds nuw (i8, ptr @server, i64 2656), align 8, !tbaa !91
  %2 = icmp slt i64 %1, 3
  br i1 %2, label %3, label %4

3:                                                ; preds = %0
  store i32 0, ptr @aofRewriteLimited.next_delay_minutes, align 4, !tbaa !21
  store i64 0, ptr @aofRewriteLimited.next_rewrite_time, align 8, !tbaa !22
  br label %24

4:                                                ; preds = %0
  %5 = load i64, ptr @aofRewriteLimited.next_rewrite_time, align 8, !tbaa !22
  %.not = icmp eq i64 %5, 0
  br i1 %.not, label %11, label %6

6:                                                ; preds = %4
  %7 = load atomic i64, ptr getelementptr inbounds nuw (i8, ptr @server, i64 7784) seq_cst, align 8, !tbaa !92
  %8 = load i64, ptr @aofRewriteLimited.next_rewrite_time, align 8, !tbaa !22
  %9 = icmp slt i64 %7, %8
  br i1 %9, label %24, label %10

10:                                               ; preds = %6
  store i64 0, ptr @aofRewriteLimited.next_rewrite_time, align 8, !tbaa !22
  br label %24

11:                                               ; preds = %4
  %12 = load i32, ptr @aofRewriteLimited.next_delay_minutes, align 4, !tbaa !21
  %13 = icmp eq i32 %12, 0
  %14 = shl nsw i32 %12, 1
  %15 = tail call i32 @llvm.smin.i32(i32 %14, i32 60)
  %spec.store.select = select i1 %13, i32 1, i32 %15
  store i32 %spec.store.select, ptr @aofRewriteLimited.next_delay_minutes, align 4
  %16 = load atomic i64, ptr getelementptr inbounds nuw (i8, ptr @server, i64 7784) seq_cst, align 8, !tbaa !92
  %17 = load i32, ptr @aofRewriteLimited.next_delay_minutes, align 4, !tbaa !21
  %18 = mul nsw i32 %17, 60
  %19 = sext i32 %18 to i64
  %20 = add nsw i64 %16, %19
  store i64 %20, ptr @aofRewriteLimited.next_rewrite_time, align 8, !tbaa !22
  %21 = load i32, ptr getelementptr inbounds nuw (i8, ptr @server, i64 6288), align 8, !tbaa !65
  %22 = icmp sgt i32 %21, 3
  br i1 %22, label %24, label %23

23:                                               ; preds = %11
  tail call void (i32, ptr, ...) @_serverLog(i32 noundef 3, ptr noundef nonnull @.str.62, i32 noundef %17) #20
  br label %24

24:                                               ; preds = %23, %11, %6, %10, %3
  %.0 = phi i32 [ 0, %3 ], [ 0, %10 ], [ 1, %6 ], [ 1, %11 ], [ 1, %23 ]
  ret i32 %.0
}